target datalayout = "e-m:e-p270:32:32-p271:32:32-p272:64:64-i64:64-i128:128-f80:128-n8:16:32:64-S128"
target triple = "x86_64-pc-linux-gnu"

%struct.server_args = type { ptr, ptr, ptr, i8, i32 }

@.str.14 = private unnamed_addr constant [28 x i8] c"../openssl/test/http_test.c\00", align 1
@.str.48 = private unnamed_addr constant [6 x i8] c"/path\00", align 1
@.str.97 = private unnamed_addr constant [11 x i8] c"text/plain\00", align 1
@.str.98 = private unnamed_addr constant [6 x i8] c"test\0A\00", align 1
@__const.test_http_resp_hdr_limit.mock_args = private unnamed_addr constant { ptr, ptr, ptr, i8, [3 x i8], i32 } { ptr null, ptr null, ptr null, i8 48, [3 x i8] zeroinitializer, i32 0 }, align 8
@.str.144 = private unnamed_addr constant [5 x i8] c"wbio\00", align 1
@.str.145 = private unnamed_addr constant [5 x i8] c"rbio\00", align 1
@.str.146 = private unnamed_addr constant [5 x i8] c"rctx\00", align 1
@.str.147 = private unnamed_addr constant [64 x i8] c"OSSL_HTTP_REQ_CTX_set_request_line(rctx, 0 , NULL, NULL, RPATH)\00", align 1
@.str.148 = private unnamed_addr constant [4 x i8] c"mem\00", align 1

; Function Attrs: nounwind uwtable
define internal i32 @test_http_resp_hdr_limit(i64 noundef %0) #0 {
  %2 = alloca i64, align 8
  %3 = alloca ptr, align 8
  %4 = alloca ptr, align 8
  %5 = alloca ptr, align 8
  %6 = alloca %struct.server_args, align 8
  %7 = alloca i32, align 4
  %8 = alloca ptr, align 8
  store i64 %0, ptr %2, align 8, !tbaa !24
  call void @llvm.lifetime.start.p0(i64 8, ptr %3) #7
  %9 = call ptr @BIO_s_mem()
  %10 = call ptr @BIO_new(ptr noundef %9)
  store ptr %10, ptr %3, align 8, !tbaa !16
  call void @llvm.lifetime.start.p0(i64 8, ptr %4) #7
  %11 = call ptr @BIO_s_mem()
  %12 = call ptr @BIO_new(ptr noundef %11)
  store ptr %12, ptr %4, align 8, !tbaa !16
  call void @llvm.lifetime.start.p0(i64 8, ptr %5) #7
  store ptr null, ptr %5, align 8, !tbaa !16
  call void @llvm.lifetime.start.p0(i64 32, ptr %6) #7
  call void @llvm.memcpy.p0.p0.i64(ptr align 8 %6, ptr align 8 @__const.test_http_resp_hdr_limit.mock_args, i64 32, i1 false)
  call void @llvm.lifetime.start.p0(i64 4, ptr %7) #7
  store i32 0, ptr %7, align 4, !tbaa !13
  call void @llvm.lifetime.start.p0(i64 8, ptr %8) #7
  store ptr null, ptr %8, align 8, !tbaa !35
  %13 = load ptr, ptr %3, align 8, !tbaa !16
  %14 = call i32 @test_ptr(ptr noundef @.str.14, i32 noundef 491, ptr noundef @.str.144, ptr noundef %13)
  %15 = icmp eq i32 %14, 0
  br i1 %15, label %20, label %16

16:                                               ; preds = %1
  %17 = load ptr, ptr %4, align 8, !tbaa !16
  %18 = call i32 @test_ptr(ptr noundef @.str.14, i32 noundef 491, ptr noundef @.str.145, ptr noundef %17)
  %19 = icmp eq i32 %18, 0
  br i1 %19, label %20, label %21

20:                                               ; preds = %16, %1
  br label %58

21:                                               ; preds = %16
  %22 = getelementptr inbounds nuw %struct.server_args, ptr %6, i32 0, i32 2
  store ptr @.str.98, ptr %22, align 8, !tbaa !20
  %23 = getelementptr inbounds nuw %struct.server_args, ptr %6, i32 0, i32 1
  store ptr @.str.97, ptr %23, align 8, !tbaa !23
  %24 = getelementptr inbounds nuw %struct.server_args, ptr %6, i32 0, i32 3
  store i8 49, ptr %24, align 8, !tbaa !29
  %25 = load ptr, ptr %4, align 8, !tbaa !16
  %26 = getelementptr inbounds nuw %struct.server_args, ptr %6, i32 0, i32 0
  store ptr %25, ptr %26, align 8, !tbaa !22
  %27 = load ptr, ptr %3, align 8, !tbaa !16
  call void @BIO_set_callback_ex(ptr noundef %27, ptr noundef @http_bio_cb_ex)
  %28 = load ptr, ptr %3, align 8, !tbaa !16
  call void @BIO_set_callback_arg(ptr noundef %28, ptr noundef %6)
  %29 = load ptr, ptr %3, align 8, !tbaa !16
  %30 = load ptr, ptr %4, align 8, !tbaa !16
  %31 = call ptr @OSSL_HTTP_REQ_CTX_new(ptr noundef %29, ptr noundef %30, i32 noundef 8192)
  store ptr %31, ptr %8, align 8, !tbaa !35
  %32 = load ptr, ptr %8, align 8, !tbaa !35
  %33 = call i32 @test_ptr(ptr noundef @.str.14, i32 noundef 503, ptr noundef @.str.146, ptr noundef %32)
  %34 = icmp eq i32 %33, 0
  br i1 %34, label %35, label %36

35:                                               ; preds = %21
  br label %58

36:                                               ; preds = %21
  %37 = load ptr, ptr %8, align 8, !tbaa !35
  %38 = call i32 @OSSL_HTTP_REQ_CTX_set_request_line(ptr noundef %37, i32 noundef 0, ptr noundef null, ptr noundef null, ptr noundef @.str.48)
  %39 = icmp ne i32 %38, 0
  %40 = zext i1 %39 to i32
  %41 = call i32 @test_true(ptr noundef @.str.14, i32 noundef 507, ptr noundef @.str.147, i32 noundef %40)
  %42 = icmp ne i32 %41, 0
  br i1 %42, label %44, label %43

43:                                               ; preds = %36
  br label %58

44:                                               ; preds = %36
  %45 = load ptr, ptr %8, align 8, !tbaa !35
  %46 = load i64, ptr %2, align 8, !tbaa !24
  call void @OSSL_HTTP_REQ_CTX_set_max_response_hdr_lines(ptr noundef %45, i64 noundef %46)
  %47 = load ptr, ptr %8, align 8, !tbaa !35
  %48 = call ptr @OSSL_HTTP_REQ_CTX_exchange(ptr noundef %47)
  store ptr %48, ptr %5, align 8, !tbaa !16
  %49 = load i64, ptr %2, align 8, !tbaa !24
  %50 = icmp eq i64 %49, 1
  br i1 %50, label %51, label %54

51:                                               ; preds = %44
  %52 = load ptr, ptr %5, align 8, !tbaa !16
  %53 = call i32 @test_ptr_null(ptr noundef @.str.14, i32 noundef 518, ptr noundef @.str.148, ptr noundef %52)
  store i32 %53, ptr %7, align 4, !tbaa !13
  br label %57

54:                                               ; preds = %44
  %55 = load ptr, ptr %5, align 8, !tbaa !16
  %56 = call i32 @test_ptr(ptr noundef @.str.14, i32 noundef 520, ptr noundef @.str.148, ptr noundef %55)
  store i32 %56, ptr %7, align 4, !tbaa !13
  br label %57

57:                                               ; preds = %54, %51
  br label %58

58:                                               ; preds = %57, %43, %35, %20
  %59 = load ptr, ptr %3, align 8, !tbaa !16
  %60 = call i32 @BIO_free(ptr noundef %59)
  %61 = load ptr, ptr %4, align 8, !tbaa !16
  %62 = call i32 @BIO_free(ptr noundef %61)
  %63 = load ptr, ptr %8, align 8, !tbaa !35
  call void @OSSL_HTTP_REQ_CTX_free(ptr noundef %63)
  %64 = load i32, ptr %7, align 4, !tbaa !13
  call void @llvm.lifetime.end.p0(i64 8, ptr %8) #7
  call void @llvm.lifetime.end.p0(i64 4, ptr %7) #7
  call void @llvm.lifetime.end.p0(i64 32, ptr %6) #7
  call void @llvm.lifetime.end.p0(i64 8, ptr %5) #7
  call void @llvm.lifetime.end.p0(i64 8, ptr %4) #7
  call void @llvm.lifetime.end.p0(i64 8, ptr %3) #7
  ret i32 %64
}