; Function Attrs: nounwind uwtable
define internal fastcc i32 @test_http_resp_hdr_limit(i64 noundef range(i64 0, 257) %0) unnamed_addr #0 {
  %2 = alloca %struct.server_args, align 8
  %3 = tail call ptr @BIO_s_mem() #9
  %4 = tail call ptr @BIO_new(ptr noundef %3) #9
  %5 = tail call ptr @BIO_s_mem() #9
  %6 = tail call ptr @BIO_new(ptr noundef %5) #9
  call void @llvm.lifetime.start.p0(i64 32, ptr nonnull %2) #9
  call void @llvm.memcpy.p0.p0.i64(ptr noundef nonnull align 8 dereferenceable(32) %2, ptr noundef nonnull align 8 dereferenceable(32) @__const.test_http_resp_hdr_limit.mock_args, i64 32, i1 false)
  %7 = tail call i32 @test_ptr(ptr noundef nonnull @.str.14, i32 noundef 491, ptr noundef nonnull @.str.144, ptr noundef %4) #9
  %8 = icmp eq i32 %7, 0
  br i1 %8, label %31, label %9

9:                                                ; preds = %1
  %10 = tail call i32 @test_ptr(ptr noundef nonnull @.str.14, i32 noundef 491, ptr noundef nonnull @.str.145, ptr noundef %6) #9
  %11 = icmp eq i32 %10, 0
  br i1 %11, label %31, label %12

12:                                               ; preds = %9
  %13 = getelementptr inbounds nuw i8, ptr %2, i64 16
  store ptr @.str.98, ptr %13, align 8, !tbaa !16
  %14 = getelementptr inbounds nuw i8, ptr %2, i64 8
  store ptr @.str.97, ptr %14, align 8, !tbaa !20
  %15 = getelementptr inbounds nuw i8, ptr %2, i64 24
  store i8 49, ptr %15, align 8, !tbaa !21
  store ptr %6, ptr %2, align 8, !tbaa !19
  tail call void @BIO_set_callback_ex(ptr noundef %4, ptr noundef nonnull @http_bio_cb_ex) #9
  call void @BIO_set_callback_arg(ptr noundef %4, ptr noundef nonnull %2) #9
  %16 = call ptr @OSSL_HTTP_REQ_CTX_new(ptr noundef %4, ptr noundef %6, i32 noundef 8192) #9
  %17 = call i32 @test_ptr(ptr noundef nonnull @.str.14, i32 noundef 503, ptr noundef nonnull @.str.146, ptr noundef %16) #9
  %18 = icmp eq i32 %17, 0
  br i1 %18, label %31, label %19

19:                                               ; preds = %12
  %20 = call i32 @OSSL_HTTP_REQ_CTX_set_request_line(ptr noundef %16, i32 noundef 0, ptr noundef null, ptr noundef null, ptr noundef nonnull @.str.48) #9
  %21 = icmp ne i32 %20, 0
  %22 = zext i1 %21 to i32
  %23 = call i32 @test_true(ptr noundef nonnull @.str.14, i32 noundef 507, ptr noundef nonnull @.str.147, i32 noundef %22) #9
  %.not = icmp eq i32 %23, 0
  br i1 %.not, label %31, label %24

24:                                               ; preds = %19
  call void @OSSL_HTTP_REQ_CTX_set_max_response_hdr_lines(ptr noundef %16, i64 noundef %0) #9
  %25 = call ptr @OSSL_HTTP_REQ_CTX_exchange(ptr noundef %16) #9
  %26 = icmp eq i64 %0, 1
  br i1 %26, label %27, label %29

27:                                               ; preds = %24
  %28 = call i32 @test_ptr_null(ptr noundef nonnull @.str.14, i32 noundef 518, ptr noundef nonnull @.str.148, ptr noundef %25) #9
  br label %31

29:                                               ; preds = %24
  %30 = call i32 @test_ptr(ptr noundef nonnull @.str.14, i32 noundef 520, ptr noundef nonnull @.str.148, ptr noundef %25) #9
  br label %31

31:                                               ; preds = %27, %29, %19, %12, %1, %9
  %.018 = phi i32 [ 0, %1 ], [ 0, %9 ], [ 0, %12 ], [ %28, %27 ], [ %30, %29 ], [ 0, %19 ]
  %.0 = phi ptr [ null, %1 ], [ null, %9 ], [ %16, %12 ], [ %16, %27 ], [ %16, %29 ], [ %16, %19 ]
  %32 = call i32 @BIO_free(ptr noundef %4) #9
  %33 = call i32 @BIO_free(ptr noundef %6) #9
  call void @OSSL_HTTP_REQ_CTX_free(ptr noundef %.0) #9
  call void @llvm.lifetime.end.p0(i64 32, ptr nonnull %2) #9
  ret i32 %.018
}